; ModuleID = 'source-C-CXX/46/2059.cpp'
source_filename = "source-C-CXX/46/2059.cpp"
target datalayout = "e-m:e-p270:32:32-p271:32:32-p272:64:64-i64:64-f80:128-n8:16:32:64-S128"
target triple = "x86_64-pc-linux-gnu"

%"class.std::ios_base::Init" = type { i8 }
%"class.std::basic_istream" = type { i32 (...)**, i64, %"class.std::basic_ios" }
%"class.std::basic_ios" = type { %"class.std::ios_base", %"class.std::basic_ostream"*, i8, i8, %"class.std::basic_streambuf"*, %"class.std::ctype"*, %"class.std::num_put"*, %"class.std::num_get"* }
%"class.std::ios_base" = type { i32 (...)**, i64, i64, i32, i32, i32, %"struct.std::ios_base::_Callback_list"*, %"struct.std::ios_base::_Words", [8 x %"struct.std::ios_base::_Words"], i32, %"struct.std::ios_base::_Words"*, %"class.std::locale" }
%"struct.std::ios_base::_Callback_list" = type { %"struct.std::ios_base::_Callback_list"*, void (i32, %"class.std::ios_base"*, i32)*, i32, i32 }
%"struct.std::ios_base::_Words" = type { i8*, i64 }
%"class.std::locale" = type { %"class.std::locale::_Impl"* }
%"class.std::locale::_Impl" = type { i32, %"class.std::locale::facet"**, i64, %"class.std::locale::facet"**, i8** }
%"class.std::locale::facet" = type <{ i32 (...)**, i32, [4 x i8] }>
%"class.std::basic_ostream" = type { i32 (...)**, %"class.std::basic_ios" }
%"class.std::basic_streambuf" = type { i32 (...)**, i8*, i8*, i8*, i8*, i8*, i8*, %"class.std::locale" }
%"class.std::ctype" = type <{ %"class.std::locale::facet.base", [4 x i8], %struct.__locale_struct*, i8, [7 x i8], i32*, i32*, i16*, i8, [256 x i8], [256 x i8], i8, [6 x i8] }>
%"class.std::locale::facet.base" = type <{ i32 (...)**, i32 }>
%struct.__locale_struct = type { [13 x %struct.__locale_data*], i16*, i32*, i32*, [13 x i8*] }
%struct.__locale_data = type opaque
%"class.std::num_put" = type { %"class.std::locale::facet.base", [4 x i8] }
%"class.std::num_get" = type { %"class.std::locale::facet.base", [4 x i8] }

@_ZStL8__ioinit = internal global %"class.std::ios_base::Init" zeroinitializer, align 1
@__dso_handle = external hidden global i8
@_ZSt3cin = external global %"class.std::basic_istream", align 8
@_ZSt4cout = external global %"class.std::basic_ostream", align 8
@.str = private unnamed_addr constant [2 x i8] c" \00", align 1
@llvm.global_ctors = appending global [1 x { i32, void ()*, i8* }] [{ i32, void ()*, i8* } { i32 65535, void ()* @_GLOBAL__sub_I_2059.cpp, i8* null }]

declare void @_ZNSt8ios_base4InitC1Ev(%"class.std::ios_base::Init"* nonnull align 1 dereferenceable(1)) unnamed_addr #0

; Function Attrs: nounwind
declare void @_ZNSt8ios_base4InitD1Ev(%"class.std::ios_base::Init"* nonnull align 1 dereferenceable(1)) unnamed_addr #1

; Function Attrs: nofree nounwind
declare i32 @__cxa_atexit(void (i8*)*, i8*, i8*) local_unnamed_addr #2

; Function Attrs: mustprogress norecurse sspstrong uwtable
define dso_local i32 @main() local_unnamed_addr #3 {
  %1 = alloca i32, align 4
  %2 = bitcast i32* %1 to i8*
  call void @llvm.lifetime.start.p0i8(i64 4, i8* nonnull %2) #7
  %3 = call nonnull align 8 dereferenceable(16) %"class.std::basic_istream"* @_ZNSirsERi(%"class.std::basic_istream"* nonnull align 8 dereferenceable(16) @_ZSt3cin, i32* nonnull align 4 dereferenceable(4) %1)
  %4 = load i32, i32* %1, align 4, !tbaa !5
  %5 = zext i32 %4 to i64
  %6 = call i8* @llvm.stacksave()
  %7 = alloca i32, i64 %5, align 16
  %8 = load i32, i32* %1, align 4, !tbaa !5
  %9 = zext i32 %8 to i64
  %10 = alloca i32, i64 %9, align 16
  %11 = icmp slt i32 %8, 1
  br i1 %11, label %164, label %122

12:                                               ; preds = %122
  %13 = add i32 %127, 1
  %14 = icmp slt i32 %127, 1
  br i1 %14, label %164, label %15

15:                                               ; preds = %12
  %16 = zext i32 %13 to i64
  %17 = add nsw i64 %16, -1
  %18 = icmp ult i64 %17, 8
  br i1 %18, label %100, label %19

19:                                               ; preds = %15
  %20 = add nsw i64 %16, -2
  %21 = trunc i64 %20 to i32
  %22 = sub i32 %127, %21
  %23 = icmp sgt i32 %22, %127
  %24 = icmp ugt i64 %20, 4294967295
  %25 = or i1 %23, %24
  br i1 %25, label %100, label %26

26:                                               ; preds = %19
  %27 = and i64 %17, -8
  %28 = or i64 %27, 1
  %29 = add nsw i64 %27, -8
  %30 = lshr exact i64 %29, 3
  %31 = add nuw nsw i64 %30, 1
  %32 = and i64 %31, 1
  %33 = icmp eq i64 %29, 0
  br i1 %33, label %77, label %34

34:                                               ; preds = %26
  %35 = and i64 %31, 4611686018427387902
  br label %36

36:                                               ; preds = %36, %34
  %37 = phi i64 [ 0, %34 ], [ %74, %36 ]
  %38 = phi i64 [ %35, %34 ], [ %75, %36 ]
  %39 = or i64 %37, 1
  %40 = trunc i64 %37 to i32
  %41 = sub i32 %127, %40
  %42 = sext i32 %41 to i64
  %43 = getelementptr inbounds i32, i32* %7, i64 %42
  %44 = getelementptr inbounds i32, i32* %43, i64 -3
  %45 = bitcast i32* %44 to <4 x i32>*
  %46 = load <4 x i32>, <4 x i32>* %45, align 4, !tbaa !5
  %47 = shufflevector <4 x i32> %46, <4 x i32> poison, <4 x i32> <i32 3, i32 2, i32 1, i32 0>
  %48 = getelementptr inbounds i32, i32* %43, i64 -7
  %49 = bitcast i32* %48 to <4 x i32>*
  %50 = load <4 x i32>, <4 x i32>* %49, align 4, !tbaa !5
  %51 = shufflevector <4 x i32> %50, <4 x i32> poison, <4 x i32> <i32 3, i32 2, i32 1, i32 0>
  %52 = getelementptr inbounds i32, i32* %10, i64 %39
  %53 = bitcast i32* %52 to <4 x i32>*
  store <4 x i32> %47, <4 x i32>* %53, align 4, !tbaa !5
  %54 = getelementptr inbounds i32, i32* %52, i64 4
  %55 = bitcast i32* %54 to <4 x i32>*
  store <4 x i32> %51, <4 x i32>* %55, align 4, !tbaa !5
  %56 = or i64 %37, 9
  %57 = trunc i64 %37 to i32
  %58 = or i32 %57, 8
  %59 = sub i32 %127, %58
  %60 = sext i32 %59 to i64
  %61 = getelementptr inbounds i32, i32* %7, i64 %60
  %62 = getelementptr inbounds i32, i32* %61, i64 -3
  %63 = bitcast i32* %62 to <4 x i32>*
  %64 = load <4 x i32>, <4 x i32>* %63, align 4, !tbaa !5
  %65 = shufflevector <4 x i32> %64, <4 x i32> poison, <4 x i32> <i32 3, i32 2, i32 1, i32 0>
  %66 = getelementptr inbounds i32, i32* %61, i64 -7
  %67 = bitcast i32* %66 to <4 x i32>*
  %68 = load <4 x i32>, <4 x i32>* %67, align 4, !tbaa !5
  %69 = shufflevector <4 x i32> %68, <4 x i32> poison, <4 x i32> <i32 3, i32 2, i32 1, i32 0>
  %70 = getelementptr inbounds i32, i32* %10, i64 %56
  %71 = bitcast i32* %70 to <4 x i32>*
  store <4 x i32> %65, <4 x i32>* %71, align 4, !tbaa !5
  %72 = getelementptr inbounds i32, i32* %70, i64 4
  %73 = bitcast i32* %72 to <4 x i32>*
  store <4 x i32> %69, <4 x i32>* %73, align 4, !tbaa !5
  %74 = add nuw i64 %37, 16
  %75 = add i64 %38, -2
  %76 = icmp eq i64 %75, 0
  br i1 %76, label %77, label %36, !llvm.loop !9

77:                                               ; preds = %36, %26
  %78 = phi i64 [ 0, %26 ], [ %74, %36 ]
  %79 = icmp eq i64 %32, 0
  br i1 %79, label %98, label %80

80:                                               ; preds = %77
  %81 = or i64 %78, 1
  %82 = trunc i64 %78 to i32
  %83 = sub i32 %127, %82
  %84 = sext i32 %83 to i64
  %85 = getelementptr inbounds i32, i32* %7, i64 %84
  %86 = getelementptr inbounds i32, i32* %85, i64 -3
  %87 = bitcast i32* %86 to <4 x i32>*
  %88 = load <4 x i32>, <4 x i32>* %87, align 4, !tbaa !5
  %89 = shufflevector <4 x i32> %88, <4 x i32> poison, <4 x i32> <i32 3, i32 2, i32 1, i32 0>
  %90 = getelementptr inbounds i32, i32* %85, i64 -7
  %91 = bitcast i32* %90 to <4 x i32>*
  %92 = load <4 x i32>, <4 x i32>* %91, align 4, !tbaa !5
  %93 = shufflevector <4 x i32> %92, <4 x i32> poison, <4 x i32> <i32 3, i32 2, i32 1, i32 0>
  %94 = getelementptr inbounds i32, i32* %10, i64 %81
  %95 = bitcast i32* %94 to <4 x i32>*
  store <4 x i32> %89, <4 x i32>* %95, align 4, !tbaa !5
  %96 = getelementptr inbounds i32, i32* %94, i64 4
  %97 = bitcast i32* %96 to <4 x i32>*
  store <4 x i32> %93, <4 x i32>* %97, align 4, !tbaa !5
  br label %98

98:                                               ; preds = %77, %80
  %99 = icmp eq i64 %17, %27
  br i1 %99, label %161, label %100

100:                                              ; preds = %19, %15, %98
  %101 = phi i64 [ 1, %19 ], [ 1, %15 ], [ %28, %98 ]
  %102 = sub nsw i64 %16, %101
  %103 = xor i64 %101, -1
  %104 = add nsw i64 %103, %16
  %105 = and i64 %102, 3
  %106 = icmp eq i64 %105, 0
  br i1 %106, label %119, label %107

107:                                              ; preds = %100, %107
  %108 = phi i64 [ %116, %107 ], [ %101, %100 ]
  %109 = phi i64 [ %117, %107 ], [ %105, %100 ]
  %110 = trunc i64 %108 to i32
  %111 = sub i32 %13, %110
  %112 = sext i32 %111 to i64
  %113 = getelementptr inbounds i32, i32* %7, i64 %112
  %114 = load i32, i32* %113, align 4, !tbaa !5
  %115 = getelementptr inbounds i32, i32* %10, i64 %108
  store i32 %114, i32* %115, align 4, !tbaa !5
  %116 = add nuw nsw i64 %108, 1
  %117 = add i64 %109, -1
  %118 = icmp eq i64 %117, 0
  br i1 %118, label %119, label %107, !llvm.loop !12

119:                                              ; preds = %107, %100
  %120 = phi i64 [ %101, %100 ], [ %116, %107 ]
  %121 = icmp ult i64 %104, 3
  br i1 %121, label %161, label %130

122:                                              ; preds = %0, %122
  %123 = phi i64 [ %126, %122 ], [ 1, %0 ]
  %124 = getelementptr inbounds i32, i32* %7, i64 %123
  %125 = call nonnull align 8 dereferenceable(16) %"class.std::basic_istream"* @_ZNSirsERi(%"class.std::basic_istream"* nonnull align 8 dereferenceable(16) @_ZSt3cin, i32* nonnull align 4 dereferenceable(4) %124)
  %126 = add nuw nsw i64 %123, 1
  %127 = load i32, i32* %1, align 4, !tbaa !5
  %128 = sext i32 %127 to i64
  %129 = icmp slt i64 %123, %128
  br i1 %129, label %122, label %12, !llvm.loop !14

130:                                              ; preds = %119, %130
  %131 = phi i64 [ %159, %130 ], [ %120, %119 ]
  %132 = trunc i64 %131 to i32
  %133 = sub i32 %13, %132
  %134 = sext i32 %133 to i64
  %135 = getelementptr inbounds i32, i32* %7, i64 %134
  %136 = load i32, i32* %135, align 4, !tbaa !5
  %137 = getelementptr inbounds i32, i32* %10, i64 %131
  store i32 %136, i32* %137, align 4, !tbaa !5
  %138 = add nuw nsw i64 %131, 1
  %139 = trunc i64 %138 to i32
  %140 = sub i32 %13, %139
  %141 = sext i32 %140 to i64
  %142 = getelementptr inbounds i32, i32* %7, i64 %141
  %143 = load i32, i32* %142, align 4, !tbaa !5
  %144 = getelementptr inbounds i32, i32* %10, i64 %138
  store i32 %143, i32* %144, align 4, !tbaa !5
  %145 = add nuw nsw i64 %131, 2
  %146 = trunc i64 %145 to i32
  %147 = sub i32 %13, %146
  %148 = sext i32 %147 to i64
  %149 = getelementptr inbounds i32, i32* %7, i64 %148
  %150 = load i32, i32* %149, align 4, !tbaa !5
  %151 = getelementptr inbounds i32, i32* %10, i64 %145
  store i32 %150, i32* %151, align 4, !tbaa !5
  %152 = add nuw nsw i64 %131, 3
  %153 = trunc i64 %152 to i32
  %154 = sub i32 %13, %153
  %155 = sext i32 %154 to i64
  %156 = getelementptr inbounds i32, i32* %7, i64 %155
  %157 = load i32, i32* %156, align 4, !tbaa !5
  %158 = getelementptr inbounds i32, i32* %10, i64 %152
  store i32 %157, i32* %158, align 4, !tbaa !5
  %159 = add nuw nsw i64 %131, 4
  %160 = icmp eq i64 %159, %16
  br i1 %160, label %161, label %130, !llvm.loop !15

161:                                              ; preds = %119, %130, %98
  %162 = getelementptr inbounds i32, i32* %10, i64 1
  %163 = load i32, i32* %162, align 4, !tbaa !5
  br label %164

164:                                              ; preds = %0, %161, %12
  %165 = phi i32 [ %163, %161 ], [ undef, %12 ], [ undef, %0 ]
  %166 = call nonnull align 8 dereferenceable(8) %"class.std::basic_ostream"* @_ZNSolsEi(%"class.std::basic_ostream"* nonnull align 8 dereferenceable(8) @_ZSt4cout, i32 %165)
  %167 = load i32, i32* %1, align 4, !tbaa !5
  %168 = icmp slt i32 %167, 2
  br i1 %168, label %179, label %169

169:                                              ; preds = %164, %169
  %170 = phi i64 [ %175, %169 ], [ 2, %164 ]
  %171 = call nonnull align 8 dereferenceable(8) %"class.std::basic_ostream"* @_ZSt16__ostream_insertIcSt11char_traitsIcEERSt13basic_ostreamIT_T0_ES6_PKS3_l(%"class.std::basic_ostream"* nonnull align 8 dereferenceable(8) @_ZSt4cout, i8* nonnull getelementptr inbounds ([2 x i8], [2 x i8]* @.str, i64 0, i64 0), i64 1)
  %172 = getelementptr inbounds i32, i32* %10, i64 %170
  %173 = load i32, i32* %172, align 4, !tbaa !5
  %174 = call nonnull align 8 dereferenceable(8) %"class.std::basic_ostream"* @_ZNSolsEi(%"class.std::basic_ostream"* nonnull align 8 dereferenceable(8) @_ZSt4cout, i32 %173)
  %175 = add nuw nsw i64 %170, 1
  %176 = load i32, i32* %1, align 4, !tbaa !5
  %177 = sext i32 %176 to i64
  %178 = icmp slt i64 %170, %177
  br i1 %178, label %169, label %179, !llvm.loop !16

179:                                              ; preds = %169, %164
  call void @llvm.stackrestore(i8* %6)
  call void @llvm.lifetime.end.p0i8(i64 4, i8* nonnull %2) #7
  ret i32 0
}

; Function Attrs: argmemonly mustprogress nofree nosync nounwind willreturn
declare void @llvm.lifetime.start.p0i8(i64 immarg, i8* nocapture) #4

declare nonnull align 8 dereferenceable(16) %"class.std::basic_istream"* @_ZNSirsERi(%"class.std::basic_istream"* nonnull align 8 dereferenceable(16), i32* nonnull align 4 dereferenceable(4)) local_unnamed_addr #0

; Function Attrs: mustprogress nofree nosync nounwind willreturn
declare i8* @llvm.stacksave() #5

declare nonnull align 8 dereferenceable(8) %"class.std::basic_ostream"* @_ZNSolsEi(%"class.std::basic_ostream"* nonnull align 8 dereferenceable(8), i32) local_unnamed_addr #0

; Function Attrs: mustprogress nofree nosync nounwind willreturn
declare void @llvm.stackrestore(i8*) #5

; Function Attrs: argmemonly mustprogress nofree nosync nounwind willreturn
declare void @llvm.lifetime.end.p0i8(i64 immarg, i8* nocapture) #4

declare nonnull align 8 dereferenceable(8) %"class.std::basic_ostream"* @_ZSt16__ostream_insertIcSt11char_traitsIcEERSt13basic_ostreamIT_T0_ES6_PKS3_l(%"class.std::basic_ostream"* nonnull align 8 dereferenceable(8), i8*, i64) local_unnamed_addr #0

; Function Attrs: sspstrong uwtable
define internal void @_GLOBAL__sub_I_2059.cpp() #6 section ".text.startup" {
  tail call void @_ZNSt8ios_base4InitC1Ev(%"class.std::ios_base::Init"* nonnull align 1 dereferenceable(1) @_ZStL8__ioinit)
  %1 = tail call i32 @__cxa_atexit(void (i8*)* bitcast (void (%"class.std::ios_base::Init"*)* @_ZNSt8ios_base4InitD1Ev to void (i8*)*), i8* getelementptr inbounds (%"class.std::ios_base::Init", %"class.std::ios_base::Init"* @_ZStL8__ioinit, i64 0, i32 0), i8* nonnull @__dso_handle) #7
  ret void
}


!llvm.module.flags = !{!0, !1, !2, !3}
!llvm.ident = !{!4}

!0 = !{i32 1, !"wchar_size", i32 4}
!1 = !{i32 7, !"PIC Level", i32 2}
!2 = !{i32 7, !"PIE Level", i32 2}
!3 = !{i32 7, !"uwtable", i32 1}
!4 = !{!"clang version 13.0.0"}
!5 = !{!6, !6, i64 0}
!6 = !{!"int", !7, i64 0}
!7 = !{!"omnipotent char", !8, i64 0}
!8 = !{!"Simple C++ TBAA"}
!9 = distinct !{!9, !10, !11}
!10 = !{!"llvm.loop.mustprogress"}
!11 = !{!"llvm.loop.isvectorized", i32 1}
!12 = distinct !{!12, !13}
!13 = !{!"llvm.loop.unroll.disable"}
!14 = distinct !{!14, !10}
!15 = distinct !{!15, !10, !11}
!16 = distinct !{!16, !10}
